target datalayout = "e-m:e-p270:32:32-p271:32:32-p272:64:64-i64:64-i128:128-f80:128-n8:16:32:64-S128"
target triple = "x86_64-pc-linux-gnu"

%struct.Pe_Binary_t = type { ptr, %struct.Pe_DosHeader_t, %struct.Pe_Header_t, %struct.Pe_OptionalHeader_t, ptr, ptr, ptr }
%struct.Pe_DosHeader_t = type { i16, i16, i16, i16, i16, i16, i16, i16, i16, i16, i16, i16, i16, i16, [4 x i16], i16, i16, [10 x i16], i32 }
%struct.Pe_Header_t = type { [4 x i8], i32, i16, i32, i32, i32, i16, i16 }
%struct.Pe_OptionalHeader_t = type { i16, i8, i8, i32, i32, i32, i32, i32, i32, i64, i32, i32, i16, i16, i16, i16, i16, i16, i32, i32, i32, i32, i32, i32, i64, i64, i64, i64, i32, i32 }

; Function Attrs: mustprogress nounwind uwtable
define hidden void @_ZN4LIEF2PE15destroy_importsEP11Pe_Binary_t(ptr noundef %0) #0 {
  %2 = alloca ptr, align 8
  %3 = alloca ptr, align 8
  %4 = alloca i64, align 8
  store ptr %0, ptr %2, align 8, !tbaa !3
  %5 = load ptr, ptr %2, align 8, !tbaa !3
  %6 = getelementptr inbounds nuw %struct.Pe_Binary_t, ptr %5, i32 0, i32 6
  %7 = load ptr, ptr %6, align 8, !tbaa !10
  %8 = icmp eq ptr %7, null
  br i1 %8, label %9, label %10

9:                                                ; preds = %1
  br label %37

10:                                               ; preds = %1
  call void @llvm.lifetime.start.p0(i64 8, ptr %3) #8
  %11 = load ptr, ptr %2, align 8, !tbaa !3
  %12 = getelementptr inbounds nuw %struct.Pe_Binary_t, ptr %11, i32 0, i32 6
  %13 = load ptr, ptr %12, align 8, !tbaa !10
  store ptr %13, ptr %3, align 8, !tbaa !62
  call void @llvm.lifetime.start.p0(i64 8, ptr %4) #8
  store i64 0, ptr %4, align 8, !tbaa !24
  br label %14

14:                                               ; preds = %30, %10
  %15 = load ptr, ptr %3, align 8, !tbaa !62
  %16 = load i64, ptr %4, align 8, !tbaa !24
  %17 = getelementptr inbounds nuw ptr, ptr %15, i64 %16
  %18 = load ptr, ptr %17, align 8, !tbaa !27
  %19 = icmp ne ptr %18, null
  br i1 %19, label %21, label %20

20:                                               ; preds = %14
  call void @llvm.lifetime.end.p0(i64 8, ptr %4) #8
  br label %33

21:                                               ; preds = %14
  %22 = load ptr, ptr %3, align 8, !tbaa !62
  %23 = load i64, ptr %4, align 8, !tbaa !24
  %24 = getelementptr inbounds nuw ptr, ptr %22, i64 %23
  %25 = load ptr, ptr %24, align 8, !tbaa !27
  call void @_ZN4LIEF2PE22destroy_import_entriesEP11Pe_Import_t(ptr noundef %25)
  %26 = load ptr, ptr %3, align 8, !tbaa !62
  %27 = load i64, ptr %4, align 8, !tbaa !24
  %28 = getelementptr inbounds nuw ptr, ptr %26, i64 %27
  %29 = load ptr, ptr %28, align 8, !tbaa !27
  call void @free(ptr noundef %29) #8
  br label %30

30:                                               ; preds = %21
  %31 = load i64, ptr %4, align 8, !tbaa !24
  %32 = add i64 %31, 1
  store i64 %32, ptr %4, align 8, !tbaa !24
  br label %14, !llvm.loop !63

33:                                               ; preds = %20
  %34 = load ptr, ptr %2, align 8, !tbaa !3
  %35 = getelementptr inbounds nuw %struct.Pe_Binary_t, ptr %34, i32 0, i32 6
  %36 = load ptr, ptr %35, align 8, !tbaa !10
  call void @free(ptr noundef %36) #8
  call void @llvm.lifetime.end.p0(i64 8, ptr %3) #8
  br label %37

37:                                               ; preds = %33, %9
  ret void
}