; Function Attrs: mustprogress nounwind uwtable
define hidden void @_ZN4LIEF2PE15destroy_importsEP11Pe_Binary_t(ptr noundef readonly captures(none) %0) local_unnamed_addr #0 {
  %2 = getelementptr inbounds nuw i8, ptr %0, i64 248
  %3 = load ptr, ptr %2, align 8, !tbaa !8
  %4 = icmp eq ptr %3, null
  br i1 %4, label %13, label %.preheader

.preheader:                                       ; preds = %1
  %5 = load ptr, ptr %3, align 8, !tbaa !22
  %.not11 = icmp eq ptr %5, null
  br i1 %.not11, label %._crit_edge, label %.lr.ph

._crit_edge.loopexit:                             ; preds = %.lr.ph
  %.pre = load ptr, ptr %2, align 8, !tbaa !8
  br label %._crit_edge

._crit_edge:                                      ; preds = %._crit_edge.loopexit, %.preheader
  %6 = phi ptr [ %.pre, %._crit_edge.loopexit ], [ %3, %.preheader ]
  tail call void @free(ptr noundef %6) #5
  br label %13

.lr.ph:                                           ; preds = %.preheader, %.lr.ph
  %7 = phi ptr [ %12, %.lr.ph ], [ %5, %.preheader ]
  %.012 = phi i64 [ %10, %.lr.ph ], [ 0, %.preheader ]
  %8 = getelementptr inbounds nuw ptr, ptr %3, i64 %.012
  tail call void @_ZN4LIEF2PE22destroy_import_entriesEP11Pe_Import_t(ptr noundef nonnull %7) #5
  %9 = load ptr, ptr %8, align 8, !tbaa !22
  tail call void @free(ptr noundef %9) #5
  %10 = add i64 %.012, 1
  %11 = getelementptr inbounds nuw ptr, ptr %3, i64 %10
  %12 = load ptr, ptr %11, align 8, !tbaa !22
  %.not = icmp eq ptr %12, null
  br i1 %.not, label %._crit_edge.loopexit, label %.lr.ph, !llvm.loop !53

13:                                               ; preds = %1, %._crit_edge
  ret void
}